target datalayout = "e-m:e-p270:32:32-p271:32:32-p272:64:64-i64:64-i128:128-f80:128-n8:16:32:64-S128"
target triple = "x86_64-pc-linux-gnu"

%struct.AVFormatContext = type { ptr, ptr, ptr, ptr, ptr, i32, i32, ptr, i32, ptr, i32, ptr, ptr, i64, i64, i64, i32, i32, i32, i64, i64, ptr, i32, i32, ptr, i32, i32, i32, i32, ptr, i64, i32, i32, %struct.AVIOInterruptCB, i32, i32, i32, i32, i64, i32, i32, i32, i32, i32, i32, i32, i32, i32, i32, i32, i32, i64, i32, i32, i32, i32, i32, ptr, ptr, ptr, ptr, i32, ptr, ptr, ptr, ptr, i32, ptr, ptr, i64, ptr, ptr, ptr, i64 }
%struct.AVIOInterruptCB = type { ptr, ptr }
%struct.FFOutputFormat = type { %struct.AVOutputFormat, i32, i32, ptr, ptr, ptr, ptr, ptr, ptr, ptr, ptr, ptr, ptr, ptr, ptr }
%struct.AVOutputFormat = type { ptr, ptr, ptr, ptr, i32, i32, i32, i32, ptr, ptr }
%struct.FormatContextInternal = type { %struct.FFFormatContext, %union.anon }
%struct.FFFormatContext = type { %struct.AVFormatContext, i32, %struct.PacketList, i64, ptr, ptr, i32, ptr, i32 }
%struct.PacketList = type { ptr, ptr }
%union.anon = type { %struct.anon.0 }
%struct.anon.0 = type { %struct.PacketList, i32, %struct.PacketList, i32, i32 }
%struct.anon = type { i32, i32, i32, ptr, i32 }
%struct.AVPacket = type { ptr, i64, i64, ptr, i32, i32, i32, ptr, i32, i64, i64, ptr, ptr, %struct.AVRational }
%struct.AVRational = type { i32, i32 }
%struct.AVChannelLayout = type { i32, i32, %union.anon.2, ptr }
%union.anon.2 = type { i64 }
%struct.AVFrame = type { [8 x ptr], [8 x i32], ptr, i32, i32, i32, i32, i32, %struct.AVRational, i64, i64, %struct.AVRational, i32, ptr, i32, i32, [8 x ptr], ptr, i32, ptr, i32, i32, i32, i32, i32, i32, i32, i64, ptr, i32, ptr, ptr, i64, i64, i64, i64, ptr, %struct.AVChannelLayout, i64 }

@.str.4 = private unnamed_addr constant [34 x i8] c"av_interleaved_write_frame FLUSH\0A\00", align 1
@.str.5 = private unnamed_addr constant [30 x i8] c"Assertion %s failed at %s:%d\0A\00", align 1
@.str.7 = private unnamed_addr constant [18 x i8] c"libavformat/mux.c\00", align 1
@.str.44 = private unnamed_addr constant [11 x i8] c"s->oformat\00", align 1

; Function Attrs: alwaysinline nounwind uwtable
define internal ptr @ff_fc_internal(ptr noundef %0) #4 {
  %2 = alloca ptr, align 8
  store ptr %0, ptr %2, align 8, !tbaa !14
  %3 = load ptr, ptr %2, align 8, !tbaa !14
  ret ptr %3
}

; Function Attrs: nounwind uwtable
define internal i32 @interleaved_write_packet(ptr noundef %0, ptr noundef %1, i32 noundef %2, i32 noundef %3) #0 {
  %5 = alloca i32, align 4
  %6 = alloca ptr, align 8
  %7 = alloca ptr, align 8
  %8 = alloca i32, align 4
  %9 = alloca i32, align 4
  %10 = alloca ptr, align 8
  %11 = alloca i32, align 4
  %12 = alloca i32, align 4
  store ptr %0, ptr %6, align 8, !tbaa !14
  store ptr %1, ptr %7, align 8, !tbaa !128
  store i32 %2, ptr %8, align 4, !tbaa !16
  store i32 %3, ptr %9, align 4, !tbaa !16
  call void @llvm.lifetime.start.p0(i64 8, ptr %10) #11
  %13 = load ptr, ptr %6, align 8, !tbaa !14
  %14 = call ptr @ff_fc_internal(ptr noundef %13)
  store ptr %14, ptr %10, align 8, !tbaa !41
  br label %15

15:                                               ; preds = %41, %4
  call void @llvm.lifetime.start.p0(i64 4, ptr %11) #11
  %16 = load ptr, ptr %10, align 8, !tbaa !41
  %17 = getelementptr inbounds nuw %struct.FormatContextInternal, ptr %16, i32 0, i32 1
  %18 = getelementptr inbounds nuw %struct.anon, ptr %17, i32 0, i32 3
  %19 = load ptr, ptr %18, align 8, !tbaa !43
  %20 = load ptr, ptr %6, align 8, !tbaa !14
  %21 = load ptr, ptr %7, align 8, !tbaa !128
  %22 = load i32, ptr %8, align 4, !tbaa !16
  %23 = load i32, ptr %9, align 4, !tbaa !16
  %24 = call i32 %19(ptr noundef %20, ptr noundef %21, i32 noundef %22, i32 noundef %23)
  store i32 %24, ptr %11, align 4, !tbaa !16
  %25 = load i32, ptr %11, align 4, !tbaa !16
  %26 = icmp sle i32 %25, 0
  br i1 %26, label %27, label %29

27:                                               ; preds = %15
  %28 = load i32, ptr %11, align 4, !tbaa !16
  store i32 %28, ptr %5, align 4
  store i32 1, ptr %12, align 4
  br label %39

29:                                               ; preds = %15
  store i32 0, ptr %9, align 4, !tbaa !16
  %30 = load ptr, ptr %6, align 8, !tbaa !14
  %31 = load ptr, ptr %7, align 8, !tbaa !128
  %32 = call i32 @write_packet(ptr noundef %30, ptr noundef %31)
  store i32 %32, ptr %11, align 4, !tbaa !16
  %33 = load ptr, ptr %7, align 8, !tbaa !128
  call void @av_packet_unref(ptr noundef %33)
  %34 = load i32, ptr %11, align 4, !tbaa !16
  %35 = icmp slt i32 %34, 0
  br i1 %35, label %36, label %38

36:                                               ; preds = %29
  %37 = load i32, ptr %11, align 4, !tbaa !16
  store i32 %37, ptr %5, align 4
  store i32 1, ptr %12, align 4
  br label %39

38:                                               ; preds = %29
  store i32 0, ptr %12, align 4
  br label %39

39:                                               ; preds = %38, %36, %27
  call void @llvm.lifetime.end.p0(i64 4, ptr %11) #11
  %40 = load i32, ptr %12, align 4
  switch i32 %40, label %42 [
    i32 0, label %41
  ]

41:                                               ; preds = %39
  br label %15

42:                                               ; preds = %39
  call void @llvm.lifetime.end.p0(i64 8, ptr %10) #11
  %43 = load i32, ptr %5, align 4
  ret i32 %43
}

; Function Attrs: nounwind uwtable
define i32 @av_interleaved_write_frame(ptr noundef %0, ptr noundef %1) #0 {
  %3 = alloca i32, align 4
  %4 = alloca ptr, align 8
  %5 = alloca ptr, align 8
  %6 = alloca i32, align 4
  %7 = alloca i32, align 4
  store ptr %0, ptr %4, align 8, !tbaa !14
  store ptr %1, ptr %5, align 8, !tbaa !128
  call void @llvm.lifetime.start.p0(i64 4, ptr %6) #11
  %8 = load ptr, ptr %5, align 8, !tbaa !128
  %9 = icmp ne ptr %8, null
  br i1 %9, label %10, label %20

10:                                               ; preds = %2
  %11 = load ptr, ptr %4, align 8, !tbaa !14
  %12 = load ptr, ptr %5, align 8, !tbaa !128
  %13 = call i32 @write_packets_common(ptr noundef %11, ptr noundef %12, i32 noundef 1)
  store i32 %13, ptr %6, align 4, !tbaa !16
  %14 = load i32, ptr %6, align 4, !tbaa !16
  %15 = icmp slt i32 %14, 0
  br i1 %15, label %16, label %18

16:                                               ; preds = %10
  %17 = load ptr, ptr %5, align 8, !tbaa !128
  call void @av_packet_unref(ptr noundef %17)
  br label %18

18:                                               ; preds = %16, %10
  %19 = load i32, ptr %6, align 4, !tbaa !16
  store i32 %19, ptr %3, align 4
  store i32 1, ptr %7, align 4
  br label %28

20:                                               ; preds = %2
  %21 = load ptr, ptr %4, align 8, !tbaa !14
  call void (ptr, i32, ptr, ...) @av_log(ptr noundef %21, i32 noundef 56, ptr noundef @.str.4)
  %22 = load ptr, ptr %4, align 8, !tbaa !14
  %23 = load ptr, ptr %4, align 8, !tbaa !14
  %24 = call ptr @ffformatcontext(ptr noundef %23)
  %25 = getelementptr inbounds nuw %struct.FFFormatContext, ptr %24, i32 0, i32 4
  %26 = load ptr, ptr %25, align 8, !tbaa !162
  %27 = call i32 @interleaved_write_packet(ptr noundef %22, ptr noundef %26, i32 noundef 1, i32 noundef 0)
  store i32 %27, ptr %3, align 4
  store i32 1, ptr %7, align 4
  br label %28

28:                                               ; preds = %20, %18
  call void @llvm.lifetime.end.p0(i64 4, ptr %6) #11
  %29 = load i32, ptr %3, align 4
  ret i32 %29
}

; Function Attrs: inlinehint nounwind uwtable
define internal ptr @ffofmt(ptr noundef %0) #3 {
  %2 = alloca ptr, align 8
  store ptr %0, ptr %2, align 8, !tbaa !10
  %3 = load ptr, ptr %2, align 8, !tbaa !10
  ret ptr %3
}

; Function Attrs: alwaysinline nounwind uwtable
define internal ptr @ffformatcontext(ptr noundef %0) #4 {
  %2 = alloca ptr, align 8
  store ptr %0, ptr %2, align 8, !tbaa !14
  %3 = load ptr, ptr %2, align 8, !tbaa !14
  ret ptr %3
}

; Function Attrs: nounwind uwtable
define internal i32 @write_uncoded_frame_internal(ptr noundef %0, i32 noundef %1, ptr noundef %2, i32 noundef %3) #0 {
  %5 = alloca i32, align 4
  %6 = alloca ptr, align 8
  %7 = alloca i32, align 4
  %8 = alloca ptr, align 8
  %9 = alloca i32, align 4
  %10 = alloca ptr, align 8
  %11 = alloca ptr, align 8
  %12 = alloca i32, align 4
  %13 = alloca i64, align 8
  %14 = alloca ptr, align 8
  store ptr %0, ptr %6, align 8, !tbaa !14
  store i32 %1, ptr %7, align 4, !tbaa !16
  store ptr %2, ptr %8, align 8, !tbaa !187
  store i32 %3, ptr %9, align 4, !tbaa !16
  call void @llvm.lifetime.start.p0(i64 8, ptr %10) #11
  %15 = load ptr, ptr %6, align 8, !tbaa !14
  %16 = call ptr @ffformatcontext(ptr noundef %15)
  store ptr %16, ptr %10, align 8, !tbaa !112
  call void @llvm.lifetime.start.p0(i64 8, ptr %11) #11
  %17 = load ptr, ptr %10, align 8, !tbaa !112
  %18 = getelementptr inbounds nuw %struct.FFFormatContext, ptr %17, i32 0, i32 4
  %19 = load ptr, ptr %18, align 8, !tbaa !162
  store ptr %19, ptr %11, align 8, !tbaa !128
  br label %20

20:                                               ; preds = %4
  %21 = load ptr, ptr %6, align 8, !tbaa !14
  %22 = getelementptr inbounds nuw %struct.AVFormatContext, ptr %21, i32 0, i32 2
  %23 = load ptr, ptr %22, align 8, !tbaa !18
  %24 = icmp ne ptr %23, null
  br i1 %24, label %26, label %25

25:                                               ; preds = %20
  call void (ptr, i32, ptr, ...) @av_log(ptr noundef null, i32 noundef 0, ptr noundef @.str.5, ptr noundef @.str.44, ptr noundef @.str.7, i32 noundef 1379)
  call void @abort() #13
  unreachable

26:                                               ; preds = %20
  br label %27

27:                                               ; preds = %26
  br label %28

28:                                               ; preds = %27
  %29 = load ptr, ptr %6, align 8, !tbaa !14
  %30 = getelementptr inbounds nuw %struct.AVFormatContext, ptr %29, i32 0, i32 2
  %31 = load ptr, ptr %30, align 8, !tbaa !18
  %32 = call ptr @ffofmt(ptr noundef %31)
  %33 = getelementptr inbounds nuw %struct.FFOutputFormat, ptr %32, i32 0, i32 10
  %34 = load ptr, ptr %33, align 8, !tbaa !189
  %35 = icmp ne ptr %34, null
  br i1 %35, label %37, label %36

36:                                               ; preds = %28
  call void @av_frame_free(ptr noundef %8)
  store i32 -38, ptr %5, align 4
  store i32 1, ptr %12, align 4
  br label %103

37:                                               ; preds = %28
  %38 = load ptr, ptr %8, align 8, !tbaa !187
  %39 = icmp ne ptr %38, null
  br i1 %39, label %41, label %40

40:                                               ; preds = %37
  store ptr null, ptr %11, align 8, !tbaa !128
  br label %90

41:                                               ; preds = %37
  call void @llvm.lifetime.start.p0(i64 8, ptr %13) #11
  store i64 72, ptr %13, align 8, !tbaa !114
  call void @llvm.lifetime.start.p0(i64 8, ptr %14) #11
  %42 = load i64, ptr %13, align 8, !tbaa !114
  %43 = call noalias ptr @av_mallocz(i64 noundef %42)
  store ptr %43, ptr %14, align 8, !tbaa !190
  %44 = load ptr, ptr %14, align 8, !tbaa !190
  %45 = icmp ne ptr %44, null
  br i1 %45, label %47, label %46

46:                                               ; preds = %41
  br label %59

47:                                               ; preds = %41
  %48 = load ptr, ptr %14, align 8, !tbaa !190
  %49 = load i64, ptr %13, align 8, !tbaa !114
  %50 = call ptr @av_buffer_create(ptr noundef %48, i64 noundef %49, ptr noundef @uncoded_frame_free, ptr noundef null, i32 noundef 0)
  %51 = load ptr, ptr %11, align 8, !tbaa !128
  %52 = getelementptr inbounds nuw %struct.AVPacket, ptr %51, i32 0, i32 0
  store ptr %50, ptr %52, align 8, !tbaa !165
  %53 = load ptr, ptr %11, align 8, !tbaa !128
  %54 = getelementptr inbounds nuw %struct.AVPacket, ptr %53, i32 0, i32 0
  %55 = load ptr, ptr %54, align 8, !tbaa !165
  %56 = icmp ne ptr %55, null
  br i1 %56, label %60, label %57

57:                                               ; preds = %47
  %58 = load ptr, ptr %14, align 8, !tbaa !190
  call void @av_free(ptr noundef %58)
  br label %59

59:                                               ; preds = %57, %46
  call void @av_frame_free(ptr noundef %8)
  store i32 -12, ptr %5, align 4
  store i32 1, ptr %12, align 4
  br label %87

60:                                               ; preds = %47
  %61 = load ptr, ptr %8, align 8, !tbaa !187
  %62 = load ptr, ptr %14, align 8, !tbaa !190
  store ptr %61, ptr %62, align 8, !tbaa !187
  %63 = load ptr, ptr %14, align 8, !tbaa !190
  %64 = load ptr, ptr %11, align 8, !tbaa !128
  %65 = getelementptr inbounds nuw %struct.AVPacket, ptr %64, i32 0, i32 3
  store ptr %63, ptr %65, align 8, !tbaa !164
  %66 = load ptr, ptr %11, align 8, !tbaa !128
  %67 = getelementptr inbounds nuw %struct.AVPacket, ptr %66, i32 0, i32 4
  store i32 8, ptr %67, align 8, !tbaa !139
  %68 = load ptr, ptr %8, align 8, !tbaa !187
  %69 = getelementptr inbounds nuw %struct.AVFrame, ptr %68, i32 0, i32 9
  %70 = load i64, ptr %69, align 8, !tbaa !192
  %71 = load ptr, ptr %11, align 8, !tbaa !128
  %72 = getelementptr inbounds nuw %struct.AVPacket, ptr %71, i32 0, i32 2
  store i64 %70, ptr %72, align 8, !tbaa !144
  %73 = load ptr, ptr %11, align 8, !tbaa !128
  %74 = getelementptr inbounds nuw %struct.AVPacket, ptr %73, i32 0, i32 1
  store i64 %70, ptr %74, align 8, !tbaa !186
  %75 = load ptr, ptr %8, align 8, !tbaa !187
  %76 = getelementptr inbounds nuw %struct.AVFrame, ptr %75, i32 0, i32 38
  %77 = load i64, ptr %76, align 8, !tbaa !196
  %78 = load ptr, ptr %11, align 8, !tbaa !128
  %79 = getelementptr inbounds nuw %struct.AVPacket, ptr %78, i32 0, i32 9
  store i64 %77, ptr %79, align 8, !tbaa !141
  %80 = load i32, ptr %7, align 4, !tbaa !16
  %81 = load ptr, ptr %11, align 8, !tbaa !128
  %82 = getelementptr inbounds nuw %struct.AVPacket, ptr %81, i32 0, i32 5
  store i32 %80, ptr %82, align 4, !tbaa !130
  %83 = load ptr, ptr %11, align 8, !tbaa !128
  %84 = getelementptr inbounds nuw %struct.AVPacket, ptr %83, i32 0, i32 6
  %85 = load i32, ptr %84, align 8, !tbaa !143
  %86 = or i32 %85, 8192
  store i32 %86, ptr %84, align 8, !tbaa !143
  store i32 0, ptr %12, align 4
  br label %87

87:                                               ; preds = %60, %59
  call void @llvm.lifetime.end.p0(i64 8, ptr %14) #11
  call void @llvm.lifetime.end.p0(i64 8, ptr %13) #11
  %88 = load i32, ptr %12, align 4
  switch i32 %88, label %103 [
    i32 0, label %89
  ]

89:                                               ; preds = %87
  br label %90

90:                                               ; preds = %89, %40
  %91 = load i32, ptr %9, align 4, !tbaa !16
  %92 = icmp ne i32 %91, 0
  br i1 %92, label %93, label %97

93:                                               ; preds = %90
  %94 = load ptr, ptr %6, align 8, !tbaa !14
  %95 = load ptr, ptr %11, align 8, !tbaa !128
  %96 = call i32 @av_interleaved_write_frame(ptr noundef %94, ptr noundef %95)
  br label %101

97:                                               ; preds = %90
  %98 = load ptr, ptr %6, align 8, !tbaa !14
  %99 = load ptr, ptr %11, align 8, !tbaa !128
  %100 = call i32 @av_write_frame(ptr noundef %98, ptr noundef %99)
  br label %101

101:                                              ; preds = %97, %93
  %102 = phi i32 [ %96, %93 ], [ %100, %97 ]
  store i32 %102, ptr %5, align 4
  store i32 1, ptr %12, align 4
  br label %103

103:                                              ; preds = %101, %87, %36
  call void @llvm.lifetime.end.p0(i64 8, ptr %11) #11
  call void @llvm.lifetime.end.p0(i64 8, ptr %10) #11
  %104 = load i32, ptr %5, align 4
  ret i32 %104
}