; Function Attrs: nounwind uwtable
define internal fastcc i32 @write_uncoded_frame_internal(ptr noundef %0, i32 noundef %1, ptr noundef %2, i32 noundef range(i32 0, 2) %3) unnamed_addr #0 {
  %5 = alloca ptr, align 8
  store ptr %2, ptr %5, align 8, !tbaa !167
  %6 = getelementptr inbounds nuw i8, ptr %0, i64 504
  %7 = load ptr, ptr %6, align 8, !tbaa !142
  %8 = getelementptr inbounds nuw i8, ptr %0, i64 16
  %9 = load ptr, ptr %8, align 8, !tbaa !9
  %.not = icmp eq ptr %9, null
  br i1 %.not, label %10, label %11

10:                                               ; preds = %4
  tail call void (ptr, i32, ptr, ...) @av_log(ptr noundef null, i32 noundef 0, ptr noundef nonnull @.str.5, ptr noundef nonnull @.str.44, ptr noundef nonnull @.str.7, i32 noundef 1379) #13
  tail call void @abort() #15
  unreachable

11:                                               ; preds = %4
  %12 = getelementptr inbounds nuw i8, ptr %9, i64 128
  %13 = load ptr, ptr %12, align 8, !tbaa !169
  %.not31 = icmp eq ptr %13, null
  br i1 %.not31, label %14, label %15

14:                                               ; preds = %11
  call void @av_frame_free(ptr noundef nonnull %5) #13
  br label %av_interleaved_write_frame.exit

15:                                               ; preds = %11
  %.not32 = icmp eq ptr %2, null
  br i1 %.not32, label %.thread, label %16

16:                                               ; preds = %15
  %17 = tail call noalias ptr @av_mallocz(i64 noundef 72) #13
  %.not33 = icmp eq ptr %17, null
  br i1 %.not33, label %21, label %18

18:                                               ; preds = %16
  %19 = tail call ptr @av_buffer_create(ptr noundef nonnull %17, i64 noundef 72, ptr noundef nonnull @uncoded_frame_free, ptr noundef null, i32 noundef 0) #13
  store ptr %19, ptr %7, align 8, !tbaa !145
  %.not34 = icmp eq ptr %19, null
  br i1 %.not34, label %20, label %22

20:                                               ; preds = %18
  tail call void @av_free(ptr noundef nonnull %17) #13
  br label %21

21:                                               ; preds = %16, %20
  call void @av_frame_free(ptr noundef nonnull %5) #13
  br label %av_interleaved_write_frame.exit

22:                                               ; preds = %18
  store ptr %2, ptr %17, align 8, !tbaa !167
  %23 = getelementptr inbounds nuw i8, ptr %7, i64 24
  store ptr %17, ptr %23, align 8, !tbaa !144
  %24 = getelementptr inbounds nuw i8, ptr %7, i64 32
  store i32 8, ptr %24, align 8, !tbaa !119
  %25 = getelementptr inbounds nuw i8, ptr %2, i64 136
  %26 = load i64, ptr %25, align 8, !tbaa !170
  %27 = getelementptr inbounds nuw i8, ptr %7, i64 16
  store i64 %26, ptr %27, align 8, !tbaa !124
  %28 = getelementptr inbounds nuw i8, ptr %7, i64 8
  store i64 %26, ptr %28, align 8, !tbaa !166
  %29 = getelementptr inbounds nuw i8, ptr %2, i64 408
  %30 = load i64, ptr %29, align 8, !tbaa !174
  %31 = getelementptr inbounds nuw i8, ptr %7, i64 64
  store i64 %30, ptr %31, align 8, !tbaa !121
  %32 = getelementptr inbounds nuw i8, ptr %7, i64 36
  store i32 %1, ptr %32, align 4, !tbaa !115
  %33 = getelementptr inbounds nuw i8, ptr %7, i64 40
  %34 = load i32, ptr %33, align 8, !tbaa !123
  %35 = or i32 %34, 8192
  store i32 %35, ptr %33, align 8, !tbaa !123
  %.not35 = icmp eq i32 %3, 0
  br i1 %.not35, label %50, label %36

.thread:                                          ; preds = %15
  %.not3537 = icmp eq i32 %3, 0
  br i1 %.not3537, label %50, label %40

36:                                               ; preds = %22
  %37 = tail call fastcc i32 @write_packets_common(ptr noundef nonnull %0, ptr noundef nonnull %7, i32 noundef 1)
  %38 = icmp slt i32 %37, 0
  br i1 %38, label %39, label %av_interleaved_write_frame.exit

39:                                               ; preds = %36
  tail call void @av_packet_unref(ptr noundef nonnull %7) #13
  br label %av_interleaved_write_frame.exit

40:                                               ; preds = %.thread
  tail call void (ptr, i32, ptr, ...) @av_log(ptr noundef nonnull %0, i32 noundef 56, ptr noundef nonnull @.str.4) #13
  %41 = load ptr, ptr %6, align 8, !tbaa !142
  %42 = getelementptr inbounds nuw i8, ptr %0, i64 560
  br label %43

43:                                               ; preds = %47, %40
  %44 = load ptr, ptr %42, align 8, !tbaa !89
  %45 = tail call i32 %44(ptr noundef nonnull %0, ptr noundef %41, i32 noundef 1, i32 noundef 0) #13
  %46 = icmp slt i32 %45, 1
  br i1 %46, label %av_interleaved_write_frame.exit, label %47

47:                                               ; preds = %43
  %48 = tail call fastcc i32 @write_packet(ptr noundef nonnull %0, ptr noundef %41)
  tail call void @av_packet_unref(ptr noundef %41) #13
  %49 = icmp sgt i32 %48, -1
  br i1 %49, label %43, label %av_interleaved_write_frame.exit

50:                                               ; preds = %.thread, %22
  %.02738 = phi ptr [ null, %.thread ], [ %7, %22 ]
  %51 = tail call i32 @av_write_frame(ptr noundef nonnull %0, ptr noundef %.02738)
  br label %av_interleaved_write_frame.exit

av_interleaved_write_frame.exit:                  ; preds = %47, %43, %39, %36, %50, %21, %14
  %.0 = phi i32 [ -12, %21 ], [ -38, %14 ], [ %51, %50 ], [ %37, %39 ], [ %37, %36 ], [ %48, %47 ], [ %45, %43 ]
  ret i32 %.0
}